target datalayout = "e-m:e-p270:32:32-p271:32:32-p272:64:64-i64:64-i128:128-f80:128-n8:16:32:64-S128"
target triple = "x86_64-pc-linux-gnu"

%struct.CSzCoderInfo = type { i32, i32, i64, %struct.CBuf }
%struct.CBuf = type { ptr, i64 }
%struct.CSzFolder = type { ptr, ptr, ptr, ptr, i32, i32, i32, i32, i32, i32 }
%struct.CSzBindPair = type { i32, i32 }

; Function Attrs: nounwind uwtable
define i32 @SzFolder_FindBindPairForOutStream(ptr noundef %0, i32 noundef %1) #0 {
  %3 = alloca i32, align 4
  %4 = alloca ptr, align 8
  %5 = alloca i32, align 4
  %6 = alloca i32, align 4
  store ptr %0, ptr %4, align 8
  store i32 %1, ptr %5, align 4
  store i32 0, ptr %6, align 4
  br label %7

7:                                                ; preds = %27, %2
  %8 = load i32, ptr %6, align 4
  %9 = load ptr, ptr %4, align 8
  %10 = getelementptr inbounds %struct.CSzFolder, ptr %9, i32 0, i32 5
  %11 = load i32, ptr %10, align 4
  %12 = icmp ult i32 %8, %11
  br i1 %12, label %13, label %30

13:                                               ; preds = %7
  %14 = load ptr, ptr %4, align 8
  %15 = getelementptr inbounds %struct.CSzFolder, ptr %14, i32 0, i32 1
  %16 = load ptr, ptr %15, align 8
  %17 = load i32, ptr %6, align 4
  %18 = zext i32 %17 to i64
  %19 = getelementptr inbounds %struct.CSzBindPair, ptr %16, i64 %18
  %20 = getelementptr inbounds %struct.CSzBindPair, ptr %19, i32 0, i32 1
  %21 = load i32, ptr %20, align 4
  %22 = load i32, ptr %5, align 4
  %23 = icmp eq i32 %21, %22
  br i1 %23, label %24, label %26

24:                                               ; preds = %13
  %25 = load i32, ptr %6, align 4
  store i32 %25, ptr %3, align 4
  br label %31

26:                                               ; preds = %13
  br label %27

27:                                               ; preds = %26
  %28 = load i32, ptr %6, align 4
  %29 = add i32 %28, 1
  store i32 %29, ptr %6, align 4
  br label %7

30:                                               ; preds = %7
  store i32 -1, ptr %3, align 4
  br label %31

31:                                               ; preds = %30, %24
  %32 = load i32, ptr %3, align 4
  ret i32 %32
}

; Function Attrs: nounwind uwtable
define i32 @SzFolder_GetNumOutStreams(ptr noundef %0) #0 {
  %2 = alloca ptr, align 8
  %3 = alloca i32, align 4
  %4 = alloca i32, align 4
  store ptr %0, ptr %2, align 8
  store i32 0, ptr %3, align 4
  store i32 0, ptr %4, align 4
  br label %5

5:                                                ; preds = %22, %1
  %6 = load i32, ptr %4, align 4
  %7 = load ptr, ptr %2, align 8
  %8 = getelementptr inbounds %struct.CSzFolder, ptr %7, i32 0, i32 4
  %9 = load i32, ptr %8, align 8
  %10 = icmp ult i32 %6, %9
  br i1 %10, label %11, label %25

11:                                               ; preds = %5
  %12 = load ptr, ptr %2, align 8
  %13 = getelementptr inbounds %struct.CSzFolder, ptr %12, i32 0, i32 0
  %14 = load ptr, ptr %13, align 8
  %15 = load i32, ptr %4, align 4
  %16 = zext i32 %15 to i64
  %17 = getelementptr inbounds %struct.CSzCoderInfo, ptr %14, i64 %16
  %18 = getelementptr inbounds %struct.CSzCoderInfo, ptr %17, i32 0, i32 1
  %19 = load i32, ptr %18, align 4
  %20 = load i32, ptr %3, align 4
  %21 = add i32 %20, %19
  store i32 %21, ptr %3, align 4
  br label %22

22:                                               ; preds = %11
  %23 = load i32, ptr %4, align 4
  %24 = add i32 %23, 1
  store i32 %24, ptr %4, align 4
  br label %5

25:                                               ; preds = %5
  %26 = load i32, ptr %3, align 4
  ret i32 %26
}

; Function Attrs: nounwind uwtable
define i64 @SzFolder_GetUnpackSize(ptr noundef %0) #0 {
  %2 = alloca i64, align 8
  %3 = alloca ptr, align 8
  %4 = alloca i32, align 4
  store ptr %0, ptr %3, align 8
  %5 = load ptr, ptr %3, align 8
  %6 = call i32 @SzFolder_GetNumOutStreams(ptr noundef %5)
  store i32 %6, ptr %4, align 4
  %7 = load i32, ptr %4, align 4
  %8 = icmp eq i32 %7, 0
  br i1 %8, label %9, label %10

9:                                                ; preds = %1
  store i64 0, ptr %2, align 8
  br label %34

10:                                               ; preds = %1
  %11 = load i32, ptr %4, align 4
  %12 = add nsw i32 %11, -1
  store i32 %12, ptr %4, align 4
  br label %13

13:                                               ; preds = %30, %10
  %14 = load i32, ptr %4, align 4
  %15 = icmp sge i32 %14, 0
  br i1 %15, label %16, label %33

16:                                               ; preds = %13
  %17 = load ptr, ptr %3, align 8
  %18 = load i32, ptr %4, align 4
  %19 = call i32 @SzFolder_FindBindPairForOutStream(ptr noundef %17, i32 noundef %18)
  %20 = icmp slt i32 %19, 0
  br i1 %20, label %21, label %29

21:                                               ; preds = %16
  %22 = load ptr, ptr %3, align 8
  %23 = getelementptr inbounds %struct.CSzFolder, ptr %22, i32 0, i32 3
  %24 = load ptr, ptr %23, align 8
  %25 = load i32, ptr %4, align 4
  %26 = sext i32 %25 to i64
  %27 = getelementptr inbounds i64, ptr %24, i64 %26
  %28 = load i64, ptr %27, align 8
  store i64 %28, ptr %2, align 8
  br label %34

29:                                               ; preds = %16
  br label %30

30:                                               ; preds = %29
  %31 = load i32, ptr %4, align 4
  %32 = add nsw i32 %31, -1
  store i32 %32, ptr %4, align 4
  br label %13

33:                                               ; preds = %13
  store i64 0, ptr %2, align 8
  br label %34

34:                                               ; preds = %33, %21, %9
  %35 = load i64, ptr %2, align 8
  ret i64 %35
}