; Function Attrs: nofree norecurse nosync nounwind memory(read, inaccessiblemem: none) uwtable
define i64 @SzFolder_GetUnpackSize(ptr noundef readonly captures(none) %0) local_unnamed_addr #3 {
  %2 = getelementptr inbounds nuw i8, ptr %0, i64 32
  %3 = load i32, ptr %2, align 8
  %.not.i = icmp eq i32 %3, 0
  br i1 %.not.i, label %SzFolder_GetNumOutStreams.exit.thread, label %.lr.ph.i

.lr.ph.i:                                         ; preds = %1
  %4 = load ptr, ptr %0, align 8
  %wide.trip.count.i = zext i32 %3 to i64
  br label %5

5:                                                ; preds = %5, %.lr.ph.i
  %indvars.iv.i = phi i64 [ 0, %.lr.ph.i ], [ %indvars.iv.next.i, %5 ]
  %.067.i = phi i32 [ 0, %.lr.ph.i ], [ %8, %5 ]
  %6 = getelementptr inbounds nuw %struct.CSzCoderInfo, ptr %4, i64 %indvars.iv.i, i32 1
  %7 = load i32, ptr %6, align 4
  %8 = add i32 %7, %.067.i
  %indvars.iv.next.i = add nuw nsw i64 %indvars.iv.i, 1
  %exitcond.not.i = icmp eq i64 %indvars.iv.next.i, %wide.trip.count.i
  br i1 %exitcond.not.i, label %SzFolder_GetNumOutStreams.exit, label %5

SzFolder_GetNumOutStreams.exit:                   ; preds = %5
  %9 = icmp eq i32 %8, 0
  br i1 %9, label %SzFolder_GetNumOutStreams.exit.thread, label %.preheader

.preheader:                                       ; preds = %SzFolder_GetNumOutStreams.exit
  %10 = getelementptr inbounds nuw i8, ptr %0, i64 36
  %11 = getelementptr inbounds nuw i8, ptr %0, i64 8
  br label %12

12:                                               ; preds = %.preheader, %SzFolder_FindBindPairForOutStream.exit
  %.0.in = phi i32 [ %.0, %SzFolder_FindBindPairForOutStream.exit ], [ %8, %.preheader ]
  %.0 = add nsw i32 %.0.in, -1
  %13 = icmp sgt i32 %.0.in, 0
  br i1 %13, label %14, label %SzFolder_GetNumOutStreams.exit.thread

14:                                               ; preds = %12
  %15 = load i32, ptr %10, align 4
  %.not.i11 = icmp eq i32 %15, 0
  br i1 %.not.i11, label %SzFolder_FindBindPairForOutStream.exit.thread, label %.lr.ph.i12

.lr.ph.i12:                                       ; preds = %14
  %16 = load ptr, ptr %11, align 8
  %wide.trip.count.i13 = zext i32 %15 to i64
  br label %17

17:                                               ; preds = %21, %.lr.ph.i12
  %indvars.iv.i14 = phi i64 [ 0, %.lr.ph.i12 ], [ %indvars.iv.next.i15, %21 ]
  %18 = getelementptr inbounds nuw %struct.CSzBindPair, ptr %16, i64 %indvars.iv.i14, i32 1
  %19 = load i32, ptr %18, align 4
  %20 = icmp eq i32 %19, %.0
  br i1 %20, label %SzFolder_FindBindPairForOutStream.exit, label %21

21:                                               ; preds = %17
  %indvars.iv.next.i15 = add nuw nsw i64 %indvars.iv.i14, 1
  %exitcond.not.i16 = icmp eq i64 %indvars.iv.next.i15, %wide.trip.count.i13
  br i1 %exitcond.not.i16, label %SzFolder_FindBindPairForOutStream.exit.thread, label %17

SzFolder_FindBindPairForOutStream.exit:           ; preds = %17
  %22 = and i64 %indvars.iv.i14, 2147483648
  %.not = icmp eq i64 %22, 0
  br i1 %.not, label %12, label %SzFolder_FindBindPairForOutStream.exit.thread

SzFolder_FindBindPairForOutStream.exit.thread:    ; preds = %14, %SzFolder_FindBindPairForOutStream.exit, %21
  %23 = getelementptr inbounds nuw i8, ptr %0, i64 24
  %24 = load ptr, ptr %23, align 8
  %25 = zext nneg i32 %.0 to i64
  %26 = getelementptr inbounds nuw i64, ptr %24, i64 %25
  %27 = load i64, ptr %26, align 8
  br label %SzFolder_GetNumOutStreams.exit.thread

SzFolder_GetNumOutStreams.exit.thread:            ; preds = %12, %1, %SzFolder_GetNumOutStreams.exit, %SzFolder_FindBindPairForOutStream.exit.thread
  %.09 = phi i64 [ %27, %SzFolder_FindBindPairForOutStream.exit.thread ], [ 0, %SzFolder_GetNumOutStreams.exit ], [ 0, %1 ], [ 0, %12 ]
  ret i64 %.09
}